target datalayout = "e-m:e-p270:32:32-p271:32:32-p272:64:64-i64:64-i128:128-f80:128-n8:16:32:64-S128"
target triple = "x86_64-pc-linux-gnu"

%struct.hsts = type { %struct.Curl_llist, ptr, i32 }
%struct.Curl_llist = type { ptr, ptr, ptr, i64 }
%struct.stsentry = type { %struct.Curl_llist_node, ptr, i8, i64 }
%struct.Curl_llist_node = type { ptr, ptr, ptr, ptr }
%struct.Curl_easy = type { i32, i64, i64, ptr, %struct.Curl_llist_node, %struct.Curl_llist_node, i32, i32, %struct.Curl_message, %struct.easy_pollset, %struct.Names, ptr, ptr, ptr, ptr, %struct.SingleRequest, %struct.UserDefined, ptr, ptr, ptr, %struct.Progress, %struct.UrlState, ptr, %struct.PureInfo, %struct.curl_tlssessioninfo }
%struct.Curl_message = type { %struct.Curl_llist_node, %struct.CURLMsg }
%struct.CURLMsg = type { i32, ptr, %union.anon }
%union.anon = type { ptr }
%struct.easy_pollset = type { [5 x i32], i32, [5 x i8] }
%struct.Names = type { ptr, i32 }
%struct.SingleRequest = type <{ i64, i64, i64, i64, %struct.curltime, i32, i32, i32, i32, i64, i32, i32, i8, i8, [2 x i8], i32, ptr, ptr, %struct.bufq, i64, i64, ptr, ptr, %union.anon.0, ptr, i8, i32, [3 x i8] }>
%struct.curltime = type { i64, i32 }
%struct.bufq = type { ptr, ptr, ptr, ptr, i64, i64, i64, i32 }
%union.anon.0 = type { ptr }
%struct.UserDefined = type <{ ptr, ptr, ptr, ptr, ptr, ptr, i64, i64, i64, ptr, ptr, i64, ptr, ptr, ptr, ptr, ptr, ptr, ptr, ptr, ptr, ptr, ptr, ptr, ptr, ptr, ptr, ptr, ptr, ptr, ptr, ptr, ptr, ptr, ptr, i64, i64, i64, i64, i64, i64, i64, i64, i64, ptr, ptr, %struct.curl_mimepart, ptr, ptr, ptr, i64, %struct.ssl_config_data, %struct.ssl_config_data, ptr, i16, i8, i8, %struct.ssl_general_config, i32, i32, i32, [4 x i8], ptr, ptr, i64, i32, i8, i8, i8, i8, ptr, ptr, ptr, i32, [4 x i8], [74 x ptr], [8 x ptr], i32, i32, i32, [4 x i8], ptr, i32, [4 x i8], ptr, ptr, ptr, ptr, ptr, i32, i32, i32, i32, i32, i32, i32, i32, i64, ptr, ptr, i64, ptr, i64, ptr, ptr, ptr, ptr, i32, i16, i16, i16, i8, i8, i8, i8, i8, i8, i8, i8, i64, [6 x i8] }>
%struct.curl_mimepart = type { ptr, ptr, i32, i32, ptr, ptr, ptr, ptr, ptr, ptr, ptr, ptr, ptr, ptr, ptr, i64, %struct.mime_state, ptr, %struct.mime_encoder_state, i64 }
%struct.mime_state = type { i32, ptr, i64 }
%struct.mime_encoder_state = type { i64, i64, i64, [256 x i8] }
%struct.ssl_config_data = type { %struct.ssl_primary_config, i64, ptr, ptr, ptr, ptr, ptr, ptr, ptr, i16 }
%struct.ssl_primary_config = type { ptr, ptr, ptr, ptr, ptr, ptr, ptr, ptr, ptr, ptr, ptr, ptr, ptr, ptr, i8, i32, i8, i8 }
%struct.ssl_general_config = type { i32 }
%struct.Progress = type { i64, %struct.pgrs_dir, %struct.pgrs_dir, i64, i64, i32, i32, i64, i64, i64, i64, i64, i64, i64, i64, i64, %struct.curltime, %struct.curltime, %struct.curltime, %struct.curltime, %struct.curltime, [6 x i64], [6 x %struct.curltime], i32, i8 }
%struct.pgrs_dir = type { i64, i64, i64, %struct.pgrs_measure }
%struct.pgrs_measure = type { %struct.curltime, i64 }
%struct.UrlState = type { %struct.curltime, i64, i64, %struct.dynbuf, ptr, i64, ptr, i32, i32, i32, ptr, i32, i64, i32, ptr, %struct.digestdata, %struct.digestdata, %struct.auth, %struct.auth, %struct.Curl_async, ptr, i8, %struct.curltime, %struct.Curl_tree, %struct.Curl_llist, [15 x %struct.time_node], ptr, ptr, i64, i64, i64, i64, [32 x i8], i64, ptr, ptr, ptr, %struct.urlpieces, ptr, ptr, ptr, ptr, ptr, i64, %struct.dynbuf, %struct.Curl_llist, [2 x %struct.curl_header], ptr, i32, ptr, ptr, %struct.store_netrc, %struct.dynamically_allocated_data, i8, i8, i8, i8, i32 }
%struct.digestdata = type { ptr, ptr, ptr, ptr, ptr, ptr, i32, i8, i8 }
%struct.auth = type { i64, i64, i64, i8 }
%struct.Curl_async = type { ptr, ptr, ptr, ptr, i32, i32, i8 }
%struct.Curl_tree = type { ptr, ptr, ptr, ptr, %struct.curltime, ptr }
%struct.time_node = type { %struct.Curl_llist_node, %struct.curltime, i32 }
%struct.urlpieces = type { ptr, ptr, ptr, ptr, ptr, ptr, ptr, ptr }
%struct.dynbuf = type { ptr, i64, i64, i64 }
%struct.curl_header = type { ptr, ptr, i64, i64, i32, ptr }
%struct.store_netrc = type { %struct.dynbuf, ptr, i8 }
%struct.dynamically_allocated_data = type { ptr, ptr, ptr, ptr, ptr, ptr, ptr, ptr, ptr, ptr, ptr, ptr, ptr, ptr }
%struct.PureInfo = type { i32, i32, i32, i64, i64, i64, i64, i64, i64, i64, ptr, ptr, i64, i32, %struct.ip_quadruple, i32, ptr, i32, %struct.curl_certinfo, i32, i8 }
%struct.ip_quadruple = type { [46 x i8], [46 x i8], i32, i32 }
%struct.curl_certinfo = type { i32, ptr }
%struct.curl_tlssessioninfo = type { i32, ptr }
%struct.curl_hstsentry = type { ptr, i64, i8, [18 x i8] }

@Curl_ccalloc = external global ptr, align 8
@Curl_cfree = external global ptr, align 8

; Function Attrs: nounwind uwtable
define internal i32 @hsts_create(ptr noundef %0, ptr noundef %1, i64 noundef %2, i1 noundef zeroext %3, i64 noundef %4) #0 {
  %6 = alloca i32, align 4
  %7 = alloca ptr, align 8
  %8 = alloca ptr, align 8
  %9 = alloca i64, align 8
  %10 = alloca i8, align 1
  %11 = alloca i64, align 8
  %12 = alloca ptr, align 8
  %13 = alloca ptr, align 8
  %14 = alloca i32, align 4
  store ptr %0, ptr %7, align 8, !tbaa !7
  store ptr %1, ptr %8, align 8, !tbaa !28
  store i64 %2, ptr %9, align 8, !tbaa !29
  %15 = zext i1 %3 to i8
  store i8 %15, ptr %10, align 1, !tbaa !30
  store i64 %4, ptr %11, align 8, !tbaa !29
  br label %16

16:                                               ; preds = %5
  br label %17

17:                                               ; preds = %16
  br label %18

18:                                               ; preds = %17
  br label %19

19:                                               ; preds = %18
  %20 = load i64, ptr %9, align 8, !tbaa !29
  %21 = icmp ne i64 %20, 0
  br i1 %21, label %22, label %33

22:                                               ; preds = %19
  %23 = load ptr, ptr %8, align 8, !tbaa !28
  %24 = load i64, ptr %9, align 8, !tbaa !29
  %25 = sub i64 %24, 1
  %26 = getelementptr inbounds nuw i8, ptr %23, i64 %25
  %27 = load i8, ptr %26, align 1, !tbaa !31
  %28 = sext i8 %27 to i32
  %29 = icmp eq i32 %28, 46
  br i1 %29, label %30, label %33

30:                                               ; preds = %22
  %31 = load i64, ptr %9, align 8, !tbaa !29
  %32 = add i64 %31, -1
  store i64 %32, ptr %9, align 8, !tbaa !29
  br label %33

33:                                               ; preds = %30, %22, %19
  %34 = load i64, ptr %9, align 8, !tbaa !29
  %35 = icmp ne i64 %34, 0
  br i1 %35, label %36, label %71

36:                                               ; preds = %33
  call void @llvm.lifetime.start.p0(i64 8, ptr %12) #6
  call void @llvm.lifetime.start.p0(i64 8, ptr %13) #6
  %37 = load ptr, ptr @Curl_ccalloc, align 8, !tbaa !3
  %38 = call ptr %37(i64 noundef 1, i64 noundef 56)
  store ptr %38, ptr %13, align 8, !tbaa !13
  %39 = load ptr, ptr %13, align 8, !tbaa !13
  %40 = icmp ne ptr %39, null
  br i1 %40, label %42, label %41

41:                                               ; preds = %36
  store i32 27, ptr %6, align 4
  store i32 1, ptr %14, align 4
  br label %68

42:                                               ; preds = %36
  %43 = load ptr, ptr %8, align 8, !tbaa !28
  %44 = load i64, ptr %9, align 8, !tbaa !29
  %45 = call ptr @Curl_memdup0(ptr noundef %43, i64 noundef %44)
  store ptr %45, ptr %12, align 8, !tbaa !28
  %46 = load ptr, ptr %12, align 8, !tbaa !28
  %47 = icmp ne ptr %46, null
  br i1 %47, label %51, label %48

48:                                               ; preds = %42
  %49 = load ptr, ptr @Curl_cfree, align 8, !tbaa !3
  %50 = load ptr, ptr %13, align 8, !tbaa !13
  call void %49(ptr noundef %50)
  store i32 27, ptr %6, align 4
  store i32 1, ptr %14, align 4
  br label %68

51:                                               ; preds = %42
  %52 = load ptr, ptr %12, align 8, !tbaa !28
  %53 = load ptr, ptr %13, align 8, !tbaa !13
  %54 = getelementptr inbounds nuw %struct.stsentry, ptr %53, i32 0, i32 1
  store ptr %52, ptr %54, align 8, !tbaa !23
  %55 = load i64, ptr %11, align 8, !tbaa !29
  %56 = load ptr, ptr %13, align 8, !tbaa !13
  %57 = getelementptr inbounds nuw %struct.stsentry, ptr %56, i32 0, i32 3
  store i64 %55, ptr %57, align 8, !tbaa !41
  %58 = load i8, ptr %10, align 1, !tbaa !30, !range !33, !noundef !34
  %59 = trunc i8 %58 to i1
  %60 = load ptr, ptr %13, align 8, !tbaa !13
  %61 = getelementptr inbounds nuw %struct.stsentry, ptr %60, i32 0, i32 2
  %62 = zext i1 %59 to i8
  store i8 %62, ptr %61, align 8, !tbaa !42
  %63 = load ptr, ptr %7, align 8, !tbaa !7
  %64 = getelementptr inbounds nuw %struct.hsts, ptr %63, i32 0, i32 0
  %65 = load ptr, ptr %13, align 8, !tbaa !13
  %66 = load ptr, ptr %13, align 8, !tbaa !13
  %67 = getelementptr inbounds nuw %struct.stsentry, ptr %66, i32 0, i32 0
  call void @Curl_llist_append(ptr noundef %64, ptr noundef %65, ptr noundef %67)
  store i32 0, ptr %14, align 4
  br label %68

68:                                               ; preds = %51, %48, %41
  call void @llvm.lifetime.end.p0(i64 8, ptr %13) #6
  call void @llvm.lifetime.end.p0(i64 8, ptr %12) #6
  %69 = load i32, ptr %14, align 4
  switch i32 %69, label %74 [
    i32 0, label %70
    i32 1, label %72
  ]

70:                                               ; preds = %68
  br label %71

71:                                               ; preds = %70, %33
  store i32 0, ptr %6, align 4
  br label %72

72:                                               ; preds = %71, %68
  %73 = load i32, ptr %6, align 4
  ret i32 %73

74:                                               ; preds = %68
  unreachable
}

; Function Attrs: nounwind uwtable
define internal i32 @hsts_pull(ptr noundef %0, ptr noundef %1) #0 {
  %3 = alloca i32, align 4
  %4 = alloca ptr, align 8
  %5 = alloca ptr, align 8
  %6 = alloca i32, align 4
  %7 = alloca [2049 x i8], align 16
  %8 = alloca %struct.curl_hstsentry, align 8
  %9 = alloca i64, align 8
  %10 = alloca i32, align 4
  %11 = alloca i32, align 4
  store ptr %0, ptr %4, align 8, !tbaa !44
  store ptr %1, ptr %5, align 8, !tbaa !7
  %12 = load ptr, ptr %4, align 8, !tbaa !44
  %13 = getelementptr inbounds nuw %struct.Curl_easy, ptr %12, i32 0, i32 16
  %14 = getelementptr inbounds nuw %struct.UserDefined, ptr %13, i32 0, i32 29
  %15 = load ptr, ptr %14, align 8, !tbaa !131
  %16 = icmp ne ptr %15, null
  br i1 %16, label %17, label %106

17:                                               ; preds = %2
  call void @llvm.lifetime.start.p0(i64 4, ptr %6) #6
  br label %18

18:                                               ; preds = %17
  br label %19

19:                                               ; preds = %18
  br label %20

20:                                               ; preds = %19
  br label %21

21:                                               ; preds = %99, %20
  call void @llvm.lifetime.start.p0(i64 2049, ptr %7) #6
  call void @llvm.lifetime.start.p0(i64 40, ptr %8) #6
  %22 = getelementptr inbounds [2049 x i8], ptr %7, i64 0, i64 0
  %23 = getelementptr inbounds nuw %struct.curl_hstsentry, ptr %8, i32 0, i32 0
  store ptr %22, ptr %23, align 8, !tbaa !125
  %24 = getelementptr inbounds nuw %struct.curl_hstsentry, ptr %8, i32 0, i32 1
  store i64 2048, ptr %24, align 8, !tbaa !127
  %25 = getelementptr inbounds nuw %struct.curl_hstsentry, ptr %8, i32 0, i32 2
  %26 = load i8, ptr %25, align 8
  %27 = and i8 %26, -2
  %28 = or i8 %27, 0
  store i8 %28, ptr %25, align 8
  %29 = getelementptr inbounds nuw %struct.curl_hstsentry, ptr %8, i32 0, i32 3
  %30 = getelementptr inbounds [18 x i8], ptr %29, i64 0, i64 0
  store i8 0, ptr %30, align 1, !tbaa !31
  %31 = getelementptr inbounds nuw %struct.curl_hstsentry, ptr %8, i32 0, i32 0
  %32 = load ptr, ptr %31, align 8, !tbaa !125
  %33 = getelementptr inbounds i8, ptr %32, i64 0
  store i8 0, ptr %33, align 1, !tbaa !31
  %34 = load ptr, ptr %4, align 8, !tbaa !44
  %35 = getelementptr inbounds nuw %struct.Curl_easy, ptr %34, i32 0, i32 16
  %36 = getelementptr inbounds nuw %struct.UserDefined, ptr %35, i32 0, i32 29
  %37 = load ptr, ptr %36, align 8, !tbaa !131
  %38 = load ptr, ptr %4, align 8, !tbaa !44
  %39 = load ptr, ptr %4, align 8, !tbaa !44
  %40 = getelementptr inbounds nuw %struct.Curl_easy, ptr %39, i32 0, i32 16
  %41 = getelementptr inbounds nuw %struct.UserDefined, ptr %40, i32 0, i32 30
  %42 = load ptr, ptr %41, align 8, !tbaa !132
  %43 = call i32 %37(ptr noundef %38, ptr noundef %8, ptr noundef %42)
  store i32 %43, ptr %6, align 4, !tbaa !37
  %44 = load i32, ptr %6, align 4, !tbaa !37
  %45 = icmp eq i32 %44, 0
  br i1 %45, label %46, label %90

46:                                               ; preds = %21
  call void @llvm.lifetime.start.p0(i64 8, ptr %9) #6
  call void @llvm.lifetime.start.p0(i64 4, ptr %10) #6
  br label %47

47:                                               ; preds = %46
  br label %48

48:                                               ; preds = %47
  br label %49

49:                                               ; preds = %48
  %50 = getelementptr inbounds nuw %struct.curl_hstsentry, ptr %8, i32 0, i32 0
  %51 = load ptr, ptr %50, align 8, !tbaa !125
  %52 = getelementptr inbounds i8, ptr %51, i64 0
  %53 = load i8, ptr %52, align 1, !tbaa !31
  %54 = icmp ne i8 %53, 0
  br i1 %54, label %56, label %55

55:                                               ; preds = %49
  store i32 43, ptr %3, align 4
  store i32 1, ptr %11, align 4
  br label %87

56:                                               ; preds = %49
  %57 = getelementptr inbounds nuw %struct.curl_hstsentry, ptr %8, i32 0, i32 3
  %58 = getelementptr inbounds [18 x i8], ptr %57, i64 0, i64 0
  %59 = load i8, ptr %58, align 1, !tbaa !31
  %60 = icmp ne i8 %59, 0
  br i1 %60, label %61, label %65

61:                                               ; preds = %56
  %62 = getelementptr inbounds nuw %struct.curl_hstsentry, ptr %8, i32 0, i32 3
  %63 = getelementptr inbounds [18 x i8], ptr %62, i64 0, i64 0
  %64 = call i64 @Curl_getdate_capped(ptr noundef %63)
  store i64 %64, ptr %9, align 8, !tbaa !29
  br label %66

65:                                               ; preds = %56
  store i64 9223372036854775807, ptr %9, align 8, !tbaa !29
  br label %66

66:                                               ; preds = %65, %61
  %67 = load ptr, ptr %5, align 8, !tbaa !7
  %68 = getelementptr inbounds nuw %struct.curl_hstsentry, ptr %8, i32 0, i32 0
  %69 = load ptr, ptr %68, align 8, !tbaa !125
  %70 = getelementptr inbounds nuw %struct.curl_hstsentry, ptr %8, i32 0, i32 0
  %71 = load ptr, ptr %70, align 8, !tbaa !125
  %72 = call i64 @strlen(ptr noundef %71) #7
  %73 = getelementptr inbounds nuw %struct.curl_hstsentry, ptr %8, i32 0, i32 2
  %74 = load i8, ptr %73, align 8
  %75 = and i8 %74, 1
  %76 = zext i8 %75 to i32
  %77 = icmp ne i32 %76, 0
  %78 = select i1 %77, i32 1, i32 0
  %79 = icmp ne i32 %78, 0
  %80 = load i64, ptr %9, align 8, !tbaa !29
  %81 = call i32 @hsts_create(ptr noundef %67, ptr noundef %69, i64 noundef %72, i1 noundef zeroext %79, i64 noundef %80)
  store i32 %81, ptr %10, align 4, !tbaa !37
  %82 = load i32, ptr %10, align 4, !tbaa !37
  %83 = icmp ne i32 %82, 0
  br i1 %83, label %84, label %86

84:                                               ; preds = %66
  %85 = load i32, ptr %10, align 4, !tbaa !37
  store i32 %85, ptr %3, align 4
  store i32 1, ptr %11, align 4
  br label %87

86:                                               ; preds = %66
  store i32 0, ptr %11, align 4
  br label %87

87:                                               ; preds = %86, %84, %55
  call void @llvm.lifetime.end.p0(i64 4, ptr %10) #6
  call void @llvm.lifetime.end.p0(i64 8, ptr %9) #6
  %88 = load i32, ptr %11, align 4
  switch i32 %88, label %96 [
    i32 0, label %89
  ]

89:                                               ; preds = %87
  br label %95

90:                                               ; preds = %21
  %91 = load i32, ptr %6, align 4, !tbaa !37
  %92 = icmp eq i32 %91, 2
  br i1 %92, label %93, label %94

93:                                               ; preds = %90
  store i32 42, ptr %3, align 4
  store i32 1, ptr %11, align 4
  br label %96

94:                                               ; preds = %90
  br label %95

95:                                               ; preds = %94, %89
  store i32 0, ptr %11, align 4
  br label %96

96:                                               ; preds = %95, %93, %87
  call void @llvm.lifetime.end.p0(i64 40, ptr %8) #6
  call void @llvm.lifetime.end.p0(i64 2049, ptr %7) #6
  %97 = load i32, ptr %11, align 4
  switch i32 %97, label %103 [
    i32 0, label %98
  ]

98:                                               ; preds = %96
  br label %99

99:                                               ; preds = %98
  %100 = load i32, ptr %6, align 4, !tbaa !37
  %101 = icmp eq i32 %100, 0
  br i1 %101, label %21, label %102, !llvm.loop !133

102:                                              ; preds = %99
  store i32 0, ptr %11, align 4
  br label %103

103:                                              ; preds = %102, %96
  call void @llvm.lifetime.end.p0(i64 4, ptr %6) #6
  %104 = load i32, ptr %11, align 4
  switch i32 %104, label %109 [
    i32 0, label %105
    i32 1, label %107
  ]

105:                                              ; preds = %103
  br label %106

106:                                              ; preds = %105, %2
  store i32 0, ptr %3, align 4
  br label %107

107:                                              ; preds = %106, %103
  %108 = load i32, ptr %3, align 4
  ret i32 %108

109:                                              ; preds = %103
  unreachable
}

; Function Attrs: nounwind uwtable
define hidden i32 @Curl_hsts_loadcb(ptr noundef %0, ptr noundef %1) #0 {
  %3 = alloca i32, align 4
  %4 = alloca ptr, align 8
  %5 = alloca ptr, align 8
  store ptr %0, ptr %4, align 8, !tbaa !44
  store ptr %1, ptr %5, align 8, !tbaa !7
  %6 = load ptr, ptr %5, align 8, !tbaa !7
  %7 = icmp ne ptr %6, null
  br i1 %7, label %8, label %12

8:                                                ; preds = %2
  %9 = load ptr, ptr %4, align 8, !tbaa !44
  %10 = load ptr, ptr %5, align 8, !tbaa !7
  %11 = call i32 @hsts_pull(ptr noundef %9, ptr noundef %10)
  store i32 %11, ptr %3, align 4
  br label %13

12:                                               ; preds = %2
  store i32 0, ptr %3, align 4
  br label %13

13:                                               ; preds = %12, %8
  %14 = load i32, ptr %3, align 4
  ret i32 %14
}