; Function Attrs: nounwind uwtable
define hidden range(i32 0, 44) i32 @Curl_hsts_loadcb(ptr noundef %0, ptr noundef %1) local_unnamed_addr #0 {
  %3 = alloca [2049 x i8], align 16
  %4 = alloca %struct.curl_hstsentry, align 8
  %.not = icmp eq ptr %1, null
  br i1 %.not, label %hsts_pull.exit, label %5

5:                                                ; preds = %2
  %6 = getelementptr inbounds nuw i8, ptr %0, i64 696
  %7 = load ptr, ptr %6, align 8, !tbaa !120
  %.not.i = icmp eq ptr %7, null
  br i1 %.not.i, label %hsts_pull.exit, label %.preheader.i

.preheader.i:                                     ; preds = %5
  %8 = getelementptr inbounds nuw i8, ptr %4, i64 8
  %9 = getelementptr inbounds nuw i8, ptr %4, i64 16
  %10 = getelementptr inbounds nuw i8, ptr %4, i64 17
  %11 = getelementptr inbounds nuw i8, ptr %0, i64 704
  br label %12

12:                                               ; preds = %47, %.preheader.i
  %13 = phi ptr [ %7, %.preheader.i ], [ %.pre48.i, %47 ]
  %14 = phi i8 [ undef, %.preheader.i ], [ %.pre.i, %47 ]
  call void @llvm.lifetime.start.p0(i64 2049, ptr nonnull %3) #9
  call void @llvm.lifetime.start.p0(i64 40, ptr nonnull %4) #9
  store ptr %3, ptr %4, align 8, !tbaa !110
  store i64 2048, ptr %8, align 8, !tbaa !112
  %15 = and i8 %14, -2
  store i8 %15, ptr %9, align 8
  store i8 0, ptr %10, align 1, !tbaa !24
  store i8 0, ptr %3, align 16, !tbaa !24
  %16 = load ptr, ptr %11, align 8, !tbaa !121
  %17 = call i32 %13(ptr noundef nonnull %0, ptr noundef nonnull %4, ptr noundef %16) #9
  switch i32 %17, label %.thread45.sink.split.i.loopexit [
    i32 0, label %18
    i32 2, label %.thread45.sink.split.i
  ]

18:                                               ; preds = %12
  %19 = load ptr, ptr %4, align 8, !tbaa !110
  %20 = load i8, ptr %19, align 1, !tbaa !24
  %.not21.i = icmp eq i8 %20, 0
  br i1 %.not21.i, label %.thread45.sink.split.i, label %21

21:                                               ; preds = %18
  %22 = load i8, ptr %10, align 1, !tbaa !24
  %.not22.i = icmp eq i8 %22, 0
  br i1 %.not22.i, label %25, label %23

23:                                               ; preds = %21
  %24 = call i64 @Curl_getdate_capped(ptr noundef nonnull %10) #9
  %.pre49.i = load ptr, ptr %4, align 8, !tbaa !110
  br label %25

25:                                               ; preds = %23, %21
  %26 = phi ptr [ %.pre49.i, %23 ], [ %19, %21 ]
  %.018.i = phi i64 [ %24, %23 ], [ 9223372036854775807, %21 ]
  %27 = call i64 @strlen(ptr noundef nonnull dereferenceable(1) %26) #10
  %28 = load i8, ptr %9, align 8
  %29 = and i8 %28, 1
  %.not.i.i = icmp eq i64 %27, 0
  br i1 %.not.i.i, label %47, label %30

30:                                               ; preds = %25
  %31 = getelementptr i8, ptr %26, i64 %27
  %32 = getelementptr i8, ptr %31, i64 -1
  %33 = load i8, ptr %32, align 1, !tbaa !24
  %34 = icmp eq i8 %33, 46
  br i1 %34, label %35, label %.thread31.i.i

35:                                               ; preds = %30
  %36 = add i64 %27, -1
  %.not26.i.i = icmp eq i64 %36, 0
  br i1 %.not26.i.i, label %47, label %.thread31.i.i

.thread31.i.i:                                    ; preds = %35, %30
  %.02134.i.i = phi i64 [ %36, %35 ], [ %27, %30 ]
  %37 = load ptr, ptr @Curl_ccalloc, align 8, !tbaa !3
  %38 = call ptr %37(i64 noundef 1, i64 noundef 56) #9
  %.not27.i.i = icmp eq ptr %38, null
  br i1 %.not27.i.i, label %.thread45.sink.split.i, label %39

39:                                               ; preds = %.thread31.i.i
  %40 = call ptr @Curl_memdup0(ptr noundef nonnull %26, i64 noundef %.02134.i.i) #9
  %.not28.i.i = icmp eq ptr %40, null
  br i1 %.not28.i.i, label %41, label %43

41:                                               ; preds = %39
  %42 = load ptr, ptr @Curl_cfree, align 8, !tbaa !3
  call void %42(ptr noundef nonnull %38) #9
  br label %.thread45.sink.split.i

43:                                               ; preds = %39
  %44 = getelementptr inbounds nuw i8, ptr %38, i64 32
  store ptr %40, ptr %44, align 8, !tbaa !9
  %45 = getelementptr inbounds nuw i8, ptr %38, i64 48
  store i64 %.018.i, ptr %45, align 8, !tbaa !32
  %46 = getelementptr inbounds nuw i8, ptr %38, i64 40
  store i8 %29, ptr %46, align 8, !tbaa !33
  call void @Curl_llist_append(ptr noundef nonnull %1, ptr noundef nonnull %38, ptr noundef nonnull %38) #9
  br label %47

47:                                               ; preds = %43, %35, %25
  call void @llvm.lifetime.end.p0(i64 40, ptr nonnull %4) #9
  call void @llvm.lifetime.end.p0(i64 2049, ptr nonnull %3) #9
  %.pre.i = load i8, ptr %9, align 8
  %.pre48.i = load ptr, ptr %6, align 8, !tbaa !120
  br label %12

.thread45.sink.split.i.loopexit:                  ; preds = %12
  br label %.thread45.sink.split.i

.thread45.sink.split.i:                           ; preds = %.thread31.i.i, %18, %12, %.thread45.sink.split.i.loopexit, %41
  %.4.ph.i = phi i32 [ 27, %41 ], [ 42, %12 ], [ 43, %18 ], [ 27, %.thread31.i.i ], [ 0, %.thread45.sink.split.i.loopexit ]
  call void @llvm.lifetime.end.p0(i64 40, ptr nonnull %4) #9
  call void @llvm.lifetime.end.p0(i64 2049, ptr nonnull %3) #9
  br label %hsts_pull.exit

hsts_pull.exit:                                   ; preds = %.thread45.sink.split.i, %5, %2
  %.0 = phi i32 [ 0, %2 ], [ 0, %5 ], [ %.4.ph.i, %.thread45.sink.split.i ]
  ret i32 %.0
}